target datalayout = "e-m:e-p270:32:32-p271:32:32-p272:64:64-i64:64-i128:128-f80:128-n8:16:32:64-S128"
target triple = "x86_64-pc-linux-gnu"

%struct.strbuf = type { i64, i64, ptr }
%struct.strvec = type { ptr, i64, i64 }
%struct.lock_file = type { ptr }
%struct.object_id = type { [32 x i8], i32 }
%struct.hashmap = type { ptr, ptr, ptr, i32, i32, i32, i32, i8 }
%struct.child_process = type { %struct.strvec, %struct.strvec, i32, i32, i64, ptr, ptr, i32, i32, i32, ptr, i16, ptr }
%struct.repository = type { ptr, ptr, ptr, ptr, ptr, %struct.strmap, %struct.strmap, %struct.repo_path_cache, ptr, ptr, ptr, ptr, %struct.repo_settings, ptr, ptr, ptr, ptr, ptr, ptr, i32, i32, i32, ptr, ptr, i32, i32, i8 }
%struct.strmap = type { %struct.hashmap, ptr, i8 }
%struct.repo_path_cache = type { ptr, ptr, ptr, ptr, ptr, ptr, ptr }
%struct.repo_settings = type { i32, i32, i32, i32, i32, i32, i32, i32, i32, i32, i32, i32, ptr, i32, i32, i32, i32, i32, i32, i32, i64, i64, i64 }
%struct.reset_head_opts = type { ptr, ptr, ptr, i32, ptr, ptr, ptr, ptr }

@strbuf_slopbuf = external global [0 x i8], align 1
@.str.46 = private unnamed_addr constant [1 x i8] zeroinitializer, align 1
@.str.57 = private unnamed_addr constant [3 x i8] c"%s\00", align 1
@.str.71 = private unnamed_addr constant [12 x i8] c"sequencer.c\00", align 1
@default_abbrev = external global i32, align 4
@.str.114 = private unnamed_addr constant [11 x i8] c"./strbuf.h\00", align 1
@.str.115 = private unnamed_addr constant [30 x i8] c"strbuf_setlen() beyond buffer\00", align 1
@__const.create_autostash_internal.buf = private unnamed_addr constant %struct.strbuf { i64 0, i64 0, ptr @strbuf_slopbuf }, align 8
@.str.185 = private unnamed_addr constant [30 x i8] c"can only pass path or refname\00", align 1
@.str.186 = private unnamed_addr constant [6 x i8] c"stash\00", align 1
@.str.187 = private unnamed_addr constant [7 x i8] c"create\00", align 1
@.str.188 = private unnamed_addr constant [10 x i8] c"autostash\00", align 1
@.str.189 = private unnamed_addr constant [17 x i8] c"Cannot autostash\00", align 1
@.str.190 = private unnamed_addr constant [32 x i8] c"Unexpected stash response: '%s'\00", align 1
@.str.191 = private unnamed_addr constant [36 x i8] c"Could not create directory for '%s'\00", align 1
@.str.192 = private unnamed_addr constant [23 x i8] c"Created autostash: %s\0A\00", align 1
@.str.193 = private unnamed_addr constant [23 x i8] c"could not reset --hard\00", align 1
@.str.194 = private unnamed_addr constant [21 x i8] c"could not read index\00", align 1

; Function Attrs: inlinehint nounwind uwtable
define internal i32 @capture_command(ptr noundef %0, ptr noundef %1, i64 noundef %2) #1 {
  %4 = alloca ptr, align 8
  %5 = alloca ptr, align 8
  %6 = alloca i64, align 8
  store ptr %0, ptr %4, align 8, !tbaa !332
  store ptr %1, ptr %5, align 8, !tbaa !41
  store i64 %2, ptr %6, align 8, !tbaa !43
  %7 = load ptr, ptr %4, align 8, !tbaa !332
  %8 = load ptr, ptr %5, align 8, !tbaa !41
  %9 = load i64, ptr %6, align 8, !tbaa !43
  %10 = call i32 @pipe_command(ptr noundef %7, ptr noundef null, i64 noundef 0, ptr noundef %8, i64 noundef %9, ptr noundef null, i64 noundef 0)
  ret i32 %10
}

; Function Attrs: inlinehint nounwind uwtable
define internal void @strbuf_setlen(ptr noundef %0, i64 noundef %1) #1 {
  %3 = alloca ptr, align 8
  %4 = alloca i64, align 8
  store ptr %0, ptr %3, align 8, !tbaa !41
  store i64 %1, ptr %4, align 8, !tbaa !43
  %5 = load i64, ptr %4, align 8, !tbaa !43
  %6 = load ptr, ptr %3, align 8, !tbaa !41
  %7 = getelementptr inbounds nuw %struct.strbuf, ptr %6, i32 0, i32 0
  %8 = load i64, ptr %7, align 8, !tbaa !44
  %9 = icmp ne i64 %8, 0
  br i1 %9, label %10, label %15

10:                                               ; preds = %2
  %11 = load ptr, ptr %3, align 8, !tbaa !41
  %12 = getelementptr inbounds nuw %struct.strbuf, ptr %11, i32 0, i32 0
  %13 = load i64, ptr %12, align 8, !tbaa !44
  %14 = sub i64 %13, 1
  br label %16

15:                                               ; preds = %2
  br label %16

16:                                               ; preds = %15, %10
  %17 = phi i64 [ %14, %10 ], [ 0, %15 ]
  %18 = icmp ugt i64 %5, %17
  br i1 %18, label %19, label %20

19:                                               ; preds = %16
  call void (ptr, i32, ptr, ...) @BUG_fl(ptr noundef @.str.114, i32 noundef 167, ptr noundef @.str.115) #13
  unreachable

20:                                               ; preds = %16
  %21 = load i64, ptr %4, align 8, !tbaa !43
  %22 = load ptr, ptr %3, align 8, !tbaa !41
  %23 = getelementptr inbounds nuw %struct.strbuf, ptr %22, i32 0, i32 1
  store i64 %21, ptr %23, align 8, !tbaa !45
  %24 = load ptr, ptr %3, align 8, !tbaa !41
  %25 = getelementptr inbounds nuw %struct.strbuf, ptr %24, i32 0, i32 2
  %26 = load ptr, ptr %25, align 8, !tbaa !37
  %27 = icmp ne ptr %26, @strbuf_slopbuf
  br i1 %27, label %28, label %34

28:                                               ; preds = %20
  %29 = load ptr, ptr %3, align 8, !tbaa !41
  %30 = getelementptr inbounds nuw %struct.strbuf, ptr %29, i32 0, i32 2
  %31 = load ptr, ptr %30, align 8, !tbaa !37
  %32 = load i64, ptr %4, align 8, !tbaa !43
  %33 = getelementptr inbounds nuw i8, ptr %31, i64 %32
  store i8 0, ptr %33, align 1, !tbaa !30
  br label %35

34:                                               ; preds = %20
  br label %35

35:                                               ; preds = %34, %28
  ret void
}

; Function Attrs: inlinehint nounwind uwtable
define internal i32 @rollback_lock_file(ptr noundef %0) #1 {
  %2 = alloca ptr, align 8
  store ptr %0, ptr %2, align 8, !tbaa !327
  %3 = load ptr, ptr %2, align 8, !tbaa !327
  %4 = getelementptr inbounds nuw %struct.lock_file, ptr %3, i32 0, i32 0
  %5 = call i32 @delete_tempfile(ptr noundef %4)
  ret i32 %5
}

; Function Attrs: nounwind uwtable
define internal void @create_autostash_internal(ptr noundef %0, ptr noundef %1, ptr noundef %2) #0 {
  %4 = alloca ptr, align 8
  %5 = alloca ptr, align 8
  %6 = alloca ptr, align 8
  %7 = alloca %struct.strbuf, align 8
  %8 = alloca %struct.lock_file, align 8
  %9 = alloca i32, align 4
  %10 = alloca %struct.child_process, align 8
  %11 = alloca %struct.reset_head_opts, align 8
  %12 = alloca %struct.object_id, align 4
  store ptr %0, ptr %4, align 8, !tbaa !9
  store ptr %1, ptr %5, align 8, !tbaa !4
  store ptr %2, ptr %6, align 8, !tbaa !4
  call void @llvm.lifetime.start.p0(i64 24, ptr %7) #11
  call void @llvm.memcpy.p0.p0.i64(ptr align 8 %7, ptr align 8 @__const.create_autostash_internal.buf, i64 24, i1 false)
  call void @llvm.lifetime.start.p0(i64 8, ptr %8) #11
  call void @llvm.memset.p0.i64(ptr align 8 %8, i8 0, i64 8, i1 false)
  call void @llvm.lifetime.start.p0(i64 4, ptr %9) #11
  %13 = load ptr, ptr %5, align 8, !tbaa !4
  %14 = icmp ne ptr %13, null
  br i1 %14, label %15, label %19

15:                                               ; preds = %3
  %16 = load ptr, ptr %6, align 8, !tbaa !4
  %17 = icmp ne ptr %16, null
  br i1 %17, label %18, label %19

18:                                               ; preds = %15
  call void (ptr, i32, ptr, ...) @BUG_fl(ptr noundef @.str.71, i32 noundef 4645, ptr noundef @.str.185) #13
  unreachable

19:                                               ; preds = %15, %3
  %20 = load ptr, ptr %4, align 8, !tbaa !9
  %21 = call i32 @repo_hold_locked_index(ptr noundef %20, ptr noundef %8, i32 noundef 0)
  store i32 %21, ptr %9, align 4, !tbaa !29
  %22 = load ptr, ptr %4, align 8, !tbaa !9
  %23 = getelementptr inbounds nuw %struct.repository, ptr %22, i32 0, i32 15
  %24 = load ptr, ptr %23, align 8, !tbaa !203
  %25 = call i32 @refresh_index(ptr noundef %24, i32 noundef 4, ptr noundef null, ptr noundef null, ptr noundef null)
  %26 = load i32, ptr %9, align 4, !tbaa !29
  %27 = icmp sle i32 0, %26
  br i1 %27, label %28, label %30

28:                                               ; preds = %19
  %29 = load ptr, ptr %4, align 8, !tbaa !9
  call void @repo_update_index_if_able(ptr noundef %29, ptr noundef %8)
  br label %30

30:                                               ; preds = %28, %19
  %31 = call i32 @rollback_lock_file(ptr noundef %8)
  %32 = load ptr, ptr %4, align 8, !tbaa !9
  %33 = call i32 @has_unstaged_changes(ptr noundef %32, i32 noundef 1)
  %34 = icmp ne i32 %33, 0
  br i1 %34, label %39, label %35

35:                                               ; preds = %30
  %36 = load ptr, ptr %4, align 8, !tbaa !9
  %37 = call i32 @has_uncommitted_changes(ptr noundef %36, i32 noundef 1)
  %38 = icmp ne i32 %37, 0
  br i1 %38, label %39, label %104

39:                                               ; preds = %35, %30
  call void @llvm.lifetime.start.p0(i64 120, ptr %10) #11
  call void @llvm.memcpy.p0.p0.i64(ptr align 8 %10, ptr align 8 @__const.create_autostash_internal.stash, i64 120, i1 false)
  call void @llvm.lifetime.start.p0(i64 64, ptr %11) #11
  call void @llvm.memset.p0.i64(ptr align 8 %11, i8 0, i64 64, i1 false)
  %40 = getelementptr inbounds { ptr, ptr, ptr, i32, [4 x i8], ptr, ptr, ptr, ptr }, ptr %11, i32 0, i32 3
  store i32 2, ptr %40, align 8
  call void @llvm.lifetime.start.p0(i64 36, ptr %12) #11
  %41 = getelementptr inbounds nuw %struct.child_process, ptr %10, i32 0, i32 0
  call void (ptr, ...) @strvec_pushl(ptr noundef %41, ptr noundef @.str.186, ptr noundef @.str.187, ptr noundef @.str.188, ptr noundef null)
  %42 = getelementptr inbounds nuw %struct.child_process, ptr %10, i32 0, i32 11
  %43 = load i16, ptr %42, align 8
  %44 = and i16 %43, -9
  %45 = or i16 %44, 8
  store i16 %45, ptr %42, align 8
  %46 = getelementptr inbounds nuw %struct.child_process, ptr %10, i32 0, i32 11
  %47 = load i16, ptr %46, align 8
  %48 = and i16 %47, -2
  %49 = or i16 %48, 1
  store i16 %49, ptr %46, align 8
  call void @strbuf_setlen(ptr noundef %7, i64 noundef 0)
  %50 = call i32 @capture_command(ptr noundef %10, ptr noundef %7, i64 noundef 64)
  %51 = icmp ne i32 %50, 0
  br i1 %51, label %52, label %54

52:                                               ; preds = %39
  %53 = call ptr @_(ptr noundef @.str.189)
  call void (ptr, ...) @die(ptr noundef %53) #13
  unreachable

54:                                               ; preds = %39
  call void @strbuf_trim_trailing_newline(ptr noundef %7)
  %55 = load ptr, ptr %4, align 8, !tbaa !9
  %56 = getelementptr inbounds nuw %struct.strbuf, ptr %7, i32 0, i32 2
  %57 = load ptr, ptr %56, align 8, !tbaa !37
  %58 = call i32 @repo_get_oid(ptr noundef %55, ptr noundef %57, ptr noundef %12)
  %59 = icmp ne i32 %58, 0
  br i1 %59, label %60, label %64

60:                                               ; preds = %54
  %61 = call ptr @_(ptr noundef @.str.190)
  %62 = getelementptr inbounds nuw %struct.strbuf, ptr %7, i32 0, i32 2
  %63 = load ptr, ptr %62, align 8, !tbaa !37
  call void (ptr, ...) @die(ptr noundef %61, ptr noundef %63) #13
  unreachable

64:                                               ; preds = %54
  call void @strbuf_setlen(ptr noundef %7, i64 noundef 0)
  %65 = load i32, ptr @default_abbrev, align 4, !tbaa !29
  call void @strbuf_add_unique_abbrev(ptr noundef %7, ptr noundef %12, i32 noundef %65)
  %66 = load ptr, ptr %5, align 8, !tbaa !4
  %67 = icmp ne ptr %66, null
  br i1 %67, label %68, label %78

68:                                               ; preds = %64
  %69 = load ptr, ptr %5, align 8, !tbaa !4
  %70 = call i32 @safe_create_leading_directories_const(ptr noundef %69)
  %71 = icmp ne i32 %70, 0
  br i1 %71, label %72, label %75

72:                                               ; preds = %68
  %73 = call ptr @_(ptr noundef @.str.191)
  %74 = load ptr, ptr %5, align 8, !tbaa !4
  call void (ptr, ...) @die(ptr noundef %73, ptr noundef %74) #13
  unreachable

75:                                               ; preds = %68
  %76 = load ptr, ptr %5, align 8, !tbaa !4
  %77 = call ptr @oid_to_hex(ptr noundef %12)
  call void (ptr, ptr, ...) @write_file(ptr noundef %76, ptr noundef @.str.57, ptr noundef %77)
  br label %84

78:                                               ; preds = %64
  %79 = load ptr, ptr %4, align 8, !tbaa !9
  %80 = call ptr @get_main_ref_store(ptr noundef %79)
  %81 = load ptr, ptr %6, align 8, !tbaa !4
  %82 = call ptr @null_oid()
  %83 = call i32 @refs_update_ref(ptr noundef %80, ptr noundef @.str.46, ptr noundef %81, ptr noundef %12, ptr noundef %82, i32 noundef 0, i32 noundef 1)
  br label %84

84:                                               ; preds = %78, %75
  %85 = call ptr @_(ptr noundef @.str.192)
  %86 = getelementptr inbounds nuw %struct.strbuf, ptr %7, i32 0, i32 2
  %87 = load ptr, ptr %86, align 8, !tbaa !37
  %88 = call i32 (ptr, ...) @printf(ptr noundef %85, ptr noundef %87)
  %89 = load ptr, ptr %4, align 8, !tbaa !9
  %90 = call i32 @reset_head(ptr noundef %89, ptr noundef %11)
  %91 = icmp slt i32 %90, 0
  br i1 %91, label %92, label %94

92:                                               ; preds = %84
  %93 = call ptr @_(ptr noundef @.str.193)
  call void (ptr, ...) @die(ptr noundef %93) #13
  unreachable

94:                                               ; preds = %84
  %95 = load ptr, ptr %4, align 8, !tbaa !9
  %96 = getelementptr inbounds nuw %struct.repository, ptr %95, i32 0, i32 15
  %97 = load ptr, ptr %96, align 8, !tbaa !203
  call void @discard_index(ptr noundef %97)
  %98 = load ptr, ptr %4, align 8, !tbaa !9
  %99 = call i32 @repo_read_index(ptr noundef %98)
  %100 = icmp slt i32 %99, 0
  br i1 %100, label %101, label %103

101:                                              ; preds = %94
  %102 = call ptr @_(ptr noundef @.str.194)
  call void (ptr, ...) @die(ptr noundef %102) #13
  unreachable

103:                                              ; preds = %94
  call void @llvm.lifetime.end.p0(i64 36, ptr %12) #11
  call void @llvm.lifetime.end.p0(i64 64, ptr %11) #11
  call void @llvm.lifetime.end.p0(i64 120, ptr %10) #11
  br label %104

104:                                              ; preds = %103, %35
  call void @strbuf_release(ptr noundef %7)
  call void @llvm.lifetime.end.p0(i64 4, ptr %9) #11
  call void @llvm.lifetime.end.p0(i64 8, ptr %8) #11
  call void @llvm.lifetime.end.p0(i64 24, ptr %7) #11
  ret void
}