; Function Attrs: nounwind uwtable
define internal fastcc void @create_autostash_internal(ptr noundef %0, ptr noundef %1, ptr noundef %2) unnamed_addr #0 {
  %4 = alloca %struct.strbuf, align 8
  %5 = alloca %struct.lock_file, align 8
  %6 = alloca %struct.child_process, align 8
  %7 = alloca %struct.reset_head_opts, align 8
  %8 = alloca %struct.object_id, align 4
  call void @llvm.lifetime.start.p0(i64 24, ptr nonnull %4) #20
  call void @llvm.memcpy.p0.p0.i64(ptr noundef nonnull align 8 dereferenceable(24) %4, ptr noundef nonnull align 8 dereferenceable(24) @__const.make_script_with_merges.label_from_message, i64 24, i1 false)
  call void @llvm.lifetime.start.p0(i64 8, ptr nonnull %5) #20
  store i64 0, ptr %5, align 8
  %9 = icmp ne ptr %1, null
  %10 = icmp ne ptr %2, null
  %or.cond = and i1 %9, %10
  br i1 %or.cond, label %11, label %12

11:                                               ; preds = %3
  tail call void (ptr, i32, ptr, ...) @BUG_fl(ptr noundef nonnull @.str.71, i32 noundef 4645, ptr noundef nonnull @.str.185) #22
  unreachable

12:                                               ; preds = %3
  %13 = call i32 @repo_hold_locked_index(ptr noundef %0, ptr noundef nonnull %5, i32 noundef 0) #20
  %14 = getelementptr inbounds nuw i8, ptr %0, i64 384
  %15 = load ptr, ptr %14, align 8, !tbaa !189
  %16 = call i32 @refresh_index(ptr noundef %15, i32 noundef 4, ptr noundef null, ptr noundef null, ptr noundef null) #20
  %17 = icmp sgt i32 %13, -1
  br i1 %17, label %18, label %19

18:                                               ; preds = %12
  call void @repo_update_index_if_able(ptr noundef nonnull %0, ptr noundef nonnull %5) #20
  br label %19

19:                                               ; preds = %18, %12
  %20 = call i32 @delete_tempfile(ptr noundef nonnull %5) #20
  %21 = call i32 @has_unstaged_changes(ptr noundef nonnull %0, i32 noundef 1) #20
  %.not = icmp eq i32 %21, 0
  br i1 %.not, label %22, label %24

22:                                               ; preds = %19
  %23 = call i32 @has_uncommitted_changes(ptr noundef nonnull %0, i32 noundef 1) #20
  %.not18 = icmp eq i32 %23, 0
  br i1 %.not18, label %73, label %24

24:                                               ; preds = %22, %19
  call void @llvm.lifetime.start.p0(i64 120, ptr nonnull %6) #20
  call void @llvm.memcpy.p0.p0.i64(ptr noundef nonnull align 8 dereferenceable(120) %6, ptr noundef nonnull align 8 dereferenceable(120) @__const.do_merge.cmd, i64 120, i1 false)
  call void @llvm.lifetime.start.p0(i64 64, ptr nonnull %7) #20
  call void @llvm.memset.p0.i64(ptr noundef nonnull align 8 dereferenceable(64) %7, i8 0, i64 64, i1 false)
  %25 = getelementptr inbounds nuw i8, ptr %7, i64 24
  store i32 2, ptr %25, align 8
  call void @llvm.lifetime.start.p0(i64 36, ptr nonnull %8) #20
  call void (ptr, ...) @strvec_pushl(ptr noundef nonnull %6, ptr noundef nonnull @.str.186, ptr noundef nonnull @.str.187, ptr noundef nonnull @.str.188, ptr noundef null) #20
  %26 = getelementptr inbounds nuw i8, ptr %6, i64 104
  %27 = load i16, ptr %26, align 8
  %28 = or i16 %27, 9
  store i16 %28, ptr %26, align 8
  %29 = getelementptr inbounds nuw i8, ptr %4, i64 8
  store i64 0, ptr %29, align 8, !tbaa !33
  %30 = getelementptr inbounds nuw i8, ptr %4, i64 16
  %31 = load ptr, ptr %30, align 8, !tbaa !31
  %.not9.i = icmp eq ptr %31, @strbuf_slopbuf
  br i1 %.not9.i, label %strbuf_setlen.exit, label %32

32:                                               ; preds = %24
  store i8 0, ptr %31, align 1, !tbaa !24
  br label %strbuf_setlen.exit

strbuf_setlen.exit:                               ; preds = %24, %32
  %33 = call i32 @pipe_command(ptr noundef nonnull %6, ptr noundef null, i64 noundef 0, ptr noundef nonnull %4, i64 noundef 64, ptr noundef null, i64 noundef 0) #20
  %.not19 = icmp eq i32 %33, 0
  br i1 %.not19, label %36, label %34

34:                                               ; preds = %strbuf_setlen.exit
  %35 = call fastcc ptr @_(ptr noundef nonnull @.str.189)
  call void (ptr, ...) @die(ptr noundef %35) #22
  unreachable

36:                                               ; preds = %strbuf_setlen.exit
  call void @strbuf_trim_trailing_newline(ptr noundef nonnull %4) #20
  %37 = load ptr, ptr %30, align 8, !tbaa !31
  %38 = call i32 @repo_get_oid(ptr noundef nonnull %0, ptr noundef %37, ptr noundef nonnull %8) #20
  %.not20 = icmp eq i32 %38, 0
  br i1 %.not20, label %42, label %39

39:                                               ; preds = %36
  %40 = call fastcc ptr @_(ptr noundef nonnull @.str.190)
  %41 = load ptr, ptr %30, align 8, !tbaa !31
  call void (ptr, ...) @die(ptr noundef %40, ptr noundef %41) #22
  unreachable

42:                                               ; preds = %36
  store i64 0, ptr %29, align 8, !tbaa !33
  %43 = load ptr, ptr %30, align 8, !tbaa !31
  %.not9.i23 = icmp eq ptr %43, @strbuf_slopbuf
  br i1 %.not9.i23, label %strbuf_setlen.exit24, label %44

44:                                               ; preds = %42
  store i8 0, ptr %43, align 1, !tbaa !24
  br label %strbuf_setlen.exit24

strbuf_setlen.exit24:                             ; preds = %42, %44
  %45 = load i32, ptr @default_abbrev, align 4, !tbaa !21
  call void @strbuf_add_unique_abbrev(ptr noundef nonnull %4, ptr noundef nonnull %8, i32 noundef %45) #20
  br i1 %9, label %46, label %52

46:                                               ; preds = %strbuf_setlen.exit24
  %47 = call i32 @safe_create_leading_directories_const(ptr noundef nonnull %1) #20
  %.not21 = icmp eq i32 %47, 0
  br i1 %.not21, label %50, label %48

48:                                               ; preds = %46
  %49 = call fastcc ptr @_(ptr noundef nonnull @.str.191)
  call void (ptr, ...) @die(ptr noundef %49, ptr noundef nonnull %1) #22
  unreachable

50:                                               ; preds = %46
  %51 = call ptr @oid_to_hex(ptr noundef nonnull %8) #20
  call void (ptr, ptr, ...) @write_file(ptr noundef nonnull %1, ptr noundef nonnull @.str.57, ptr noundef %51) #20
  br label %56

52:                                               ; preds = %strbuf_setlen.exit24
  %53 = call ptr @get_main_ref_store(ptr noundef nonnull %0) #20
  %54 = call ptr @null_oid() #20
  %55 = call i32 @refs_update_ref(ptr noundef %53, ptr noundef nonnull @.str.46, ptr noundef %2, ptr noundef nonnull %8, ptr noundef %54, i32 noundef 0, i32 noundef 1) #20
  br label %56

56:                                               ; preds = %52, %50
  %57 = load i32, ptr @git_gettext_enabled, align 4, !tbaa !21
  %.not4.i = icmp eq i32 %57, 0
  br i1 %.not4.i, label %_.exit, label %58

58:                                               ; preds = %56
  %59 = call ptr @dcgettext(ptr noundef null, ptr noundef nonnull @.str.192, i32 noundef 5) #20
  br label %_.exit

_.exit:                                           ; preds = %56, %58
  %.0.i = phi ptr [ %59, %58 ], [ @.str.192, %56 ]
  %60 = load ptr, ptr %30, align 8, !tbaa !31
  %61 = call i32 (ptr, ...) @printf(ptr noundef nonnull dereferenceable(1) %.0.i, ptr noundef %60)
  %62 = call i32 @reset_head(ptr noundef nonnull %0, ptr noundef nonnull %7) #20
  %63 = icmp slt i32 %62, 0
  br i1 %63, label %64, label %66

64:                                               ; preds = %_.exit
  %65 = call fastcc ptr @_(ptr noundef nonnull @.str.193)
  call void (ptr, ...) @die(ptr noundef %65) #22
  unreachable

66:                                               ; preds = %_.exit
  %67 = load ptr, ptr %14, align 8, !tbaa !189
  call void @discard_index(ptr noundef %67) #20
  %68 = call i32 @repo_read_index(ptr noundef nonnull %0) #20
  %69 = icmp slt i32 %68, 0
  br i1 %69, label %70, label %72

70:                                               ; preds = %66
  %71 = call fastcc ptr @_(ptr noundef nonnull @.str.194)
  call void (ptr, ...) @die(ptr noundef %71) #22
  unreachable

72:                                               ; preds = %66
  call void @llvm.lifetime.end.p0(i64 36, ptr nonnull %8) #20
  call void @llvm.lifetime.end.p0(i64 64, ptr nonnull %7) #20
  call void @llvm.lifetime.end.p0(i64 120, ptr nonnull %6) #20
  br label %73

73:                                               ; preds = %72, %22
  call void @strbuf_release(ptr noundef nonnull %4) #20
  call void @llvm.lifetime.end.p0(i64 8, ptr nonnull %5) #20
  call void @llvm.lifetime.end.p0(i64 24, ptr nonnull %4) #20
  ret void
}